; Function Attrs: null_pointer_is_valid sspstrong uwtable
define internal i32 @fileexp_dissect_setparams_resp(ptr noundef %0, i32 noundef %1, ptr noundef %2, ptr noundef %3, ptr noundef %4, ptr noundef %5) #0 {
  %7 = alloca i32, align 4
  %8 = getelementptr inbounds nuw i8, ptr %4, i64 25
  %9 = load i8, ptr %8, align 1, !range !6, !noundef !7
  %10 = trunc nuw i8 %9 to i1
  br i1 %10, label %23, label %11

11:                                               ; preds = %6
  %12 = tail call i32 @dissect_ndr_pointer(ptr noundef %0, i32 noundef %1, ptr noundef %2, ptr noundef %3, ptr noundef %4, ptr noundef %5, ptr noundef nonnull @dissect_afsConnParams, i32 noundef 1, ptr noundef nonnull @.str.485, i32 noundef -1)
  call void @llvm.lifetime.start.p0(i64 4, ptr nonnull %7) #4
  %13 = load i32, ptr @hf_error_st, align 4
  %14 = call i32 @dissect_ndr_uint32(ptr noundef %0, i32 noundef %12, ptr noundef %2, ptr noundef %3, ptr noundef %4, ptr noundef %5, i32 noundef %13, ptr noundef nonnull %7)
  %15 = load i32, ptr %7, align 4
  %16 = call ptr @val_to_str_ext(i32 noundef %15, ptr noundef nonnull @dce_error_vals_ext, ptr noundef nonnull @.str.346)
  %17 = load i32, ptr %7, align 4
  %.not = icmp eq i32 %17, 0
  %18 = getelementptr inbounds nuw i8, ptr %2, i64 8
  %19 = load ptr, ptr %18, align 8
  br i1 %.not, label %21, label %20

20:                                               ; preds = %11
  call void (ptr, i32, ptr, ...) @col_add_fstr(ptr noundef %19, i32 noundef 25, ptr noundef nonnull @.str.373, ptr noundef nonnull @.str.500, ptr noundef %16)
  br label %22

21:                                               ; preds = %11
  call void (ptr, i32, ptr, ...) @col_append_fstr(ptr noundef %19, i32 noundef 25, ptr noundef nonnull @.str.375, ptr noundef %16)
  br label %22

22:                                               ; preds = %21, %20
  call void @llvm.lifetime.end.p0(i64 4, ptr nonnull %7) #4
  br label %23

23:                                               ; preds = %6, %22
  %.0 = phi i32 [ %14, %22 ], [ %1, %6 ]
  ret i32 %.0
}